target datalayout = "e-m:e-p270:32:32-p271:32:32-p272:64:64-i64:64-i128:128-f80:128-n8:16:32:64-S128"
target triple = "x86_64-pc-linux-gnu"

%"class.testing::internal::linked_ptr_internal" = type { ptr }
%"class.testing::internal::ValueArray5" = type { i32, i32, i32, i32, i32 }
%"class.testing::internal::ParamGenerator.132" = type { %"class.testing::internal::linked_ptr.133" }
%"class.testing::internal::linked_ptr.133" = type { ptr, %"class.testing::internal::linked_ptr_internal" }
%"class.testing::internal::CartesianProductHolder2" = type <{ %"class.testing::internal::ValueArray4", %"class.testing::internal::ValueArray5", [4 x i8] }>
%"class.testing::internal::ValueArray4" = type { ptr, ptr, ptr, ptr }

@.str.45 = private unnamed_addr constant [5 x i8] c"gain\00", align 1
@.str.46 = private unnamed_addr constant [9 x i8] c"channels\00", align 1
@.str.47 = private unnamed_addr constant [12 x i8] c"blocks_gain\00", align 1
@.str.48 = private unnamed_addr constant [16 x i8] c"blocks_channels\00", align 1

; Function Attrs: mustprogress nounwind uwtable
define linkonce_odr hidden void @_ZN7testing8internal11ValueArray5IiiiiiEC2ERKS2_(ptr noundef nonnull align 4 dereferenceable(20) %0, ptr noundef nonnull align 4 dereferenceable(20) %1) unnamed_addr #9 comdat align 2 {
  %3 = alloca ptr, align 8
  %4 = alloca ptr, align 8
  store ptr %0, ptr %3, align 8, !tbaa !565
  store ptr %1, ptr %4, align 8, !tbaa !565
  %5 = load ptr, ptr %3, align 8
  %6 = getelementptr inbounds nuw %"class.testing::internal::ValueArray5", ptr %5, i32 0, i32 0
  %7 = load ptr, ptr %4, align 8, !tbaa !565
  %8 = getelementptr inbounds nuw %"class.testing::internal::ValueArray5", ptr %7, i32 0, i32 0
  %9 = load i32, ptr %8, align 4, !tbaa !567
  store i32 %9, ptr %6, align 4, !tbaa !567
  %10 = getelementptr inbounds nuw %"class.testing::internal::ValueArray5", ptr %5, i32 0, i32 1
  %11 = load ptr, ptr %4, align 8, !tbaa !565
  %12 = getelementptr inbounds nuw %"class.testing::internal::ValueArray5", ptr %11, i32 0, i32 1
  %13 = load i32, ptr %12, align 4, !tbaa !569
  store i32 %13, ptr %10, align 4, !tbaa !569
  %14 = getelementptr inbounds nuw %"class.testing::internal::ValueArray5", ptr %5, i32 0, i32 2
  %15 = load ptr, ptr %4, align 8, !tbaa !565
  %16 = getelementptr inbounds nuw %"class.testing::internal::ValueArray5", ptr %15, i32 0, i32 2
  %17 = load i32, ptr %16, align 4, !tbaa !570
  store i32 %17, ptr %14, align 4, !tbaa !570
  %18 = getelementptr inbounds nuw %"class.testing::internal::ValueArray5", ptr %5, i32 0, i32 3
  %19 = load ptr, ptr %4, align 8, !tbaa !565
  %20 = getelementptr inbounds nuw %"class.testing::internal::ValueArray5", ptr %19, i32 0, i32 3
  %21 = load i32, ptr %20, align 4, !tbaa !571
  store i32 %21, ptr %18, align 4, !tbaa !571
  %22 = getelementptr inbounds nuw %"class.testing::internal::ValueArray5", ptr %5, i32 0, i32 4
  %23 = load ptr, ptr %4, align 8, !tbaa !565
  %24 = getelementptr inbounds nuw %"class.testing::internal::ValueArray5", ptr %23, i32 0, i32 4
  %25 = load i32, ptr %24, align 4, !tbaa !572
  store i32 %25, ptr %22, align 4, !tbaa !572
  ret void
}

; Function Attrs: mustprogress nounwind uwtable
define linkonce_odr hidden void @_ZN7testing8internal11ValueArray4IPKcS3_S3_S3_EC2ERKS4_(ptr noundef nonnull align 8 dereferenceable(32) %0, ptr noundef nonnull align 8 dereferenceable(32) %1) unnamed_addr #9 comdat align 2 {
  %3 = alloca ptr, align 8
  %4 = alloca ptr, align 8
  store ptr %0, ptr %3, align 8, !tbaa !659
  store ptr %1, ptr %4, align 8, !tbaa !659
  %5 = load ptr, ptr %3, align 8
  %6 = getelementptr inbounds nuw %"class.testing::internal::ValueArray4", ptr %5, i32 0, i32 0
  %7 = load ptr, ptr %4, align 8, !tbaa !659
  %8 = getelementptr inbounds nuw %"class.testing::internal::ValueArray4", ptr %7, i32 0, i32 0
  %9 = load ptr, ptr %8, align 8, !tbaa !663
  store ptr %9, ptr %6, align 8, !tbaa !663
  %10 = getelementptr inbounds nuw %"class.testing::internal::ValueArray4", ptr %5, i32 0, i32 1
  %11 = load ptr, ptr %4, align 8, !tbaa !659
  %12 = getelementptr inbounds nuw %"class.testing::internal::ValueArray4", ptr %11, i32 0, i32 1
  %13 = load ptr, ptr %12, align 8, !tbaa !665
  store ptr %13, ptr %10, align 8, !tbaa !665
  %14 = getelementptr inbounds nuw %"class.testing::internal::ValueArray4", ptr %5, i32 0, i32 2
  %15 = load ptr, ptr %4, align 8, !tbaa !659
  %16 = getelementptr inbounds nuw %"class.testing::internal::ValueArray4", ptr %15, i32 0, i32 2
  %17 = load ptr, ptr %16, align 8, !tbaa !666
  store ptr %17, ptr %14, align 8, !tbaa !666
  %18 = getelementptr inbounds nuw %"class.testing::internal::ValueArray4", ptr %5, i32 0, i32 3
  %19 = load ptr, ptr %4, align 8, !tbaa !659
  %20 = getelementptr inbounds nuw %"class.testing::internal::ValueArray4", ptr %19, i32 0, i32 3
  %21 = load ptr, ptr %20, align 8, !tbaa !667
  store ptr %21, ptr %18, align 8, !tbaa !667
  ret void
}

; Function Attrs: mustprogress uwtable
define linkonce_odr hidden void @_ZN7testing8internal23CartesianProductHolder2INS0_11ValueArray4IPKcS4_S4_S4_EENS0_11ValueArray5IiiiiiEEEC2ERKS5_RKS7_(ptr noundef nonnull align 8 dereferenceable(52) %0, ptr noundef nonnull align 8 dereferenceable(32) %1, ptr noundef nonnull align 4 dereferenceable(20) %2) unnamed_addr #6 comdat align 2 {
  %4 = alloca ptr, align 8
  %5 = alloca ptr, align 8
  %6 = alloca ptr, align 8
  store ptr %0, ptr %4, align 8, !tbaa !661
  store ptr %1, ptr %5, align 8, !tbaa !659
  store ptr %2, ptr %6, align 8, !tbaa !565
  %7 = load ptr, ptr %4, align 8
  %8 = getelementptr inbounds nuw %"class.testing::internal::CartesianProductHolder2", ptr %7, i32 0, i32 0
  %9 = load ptr, ptr %5, align 8, !tbaa !659
  call void @_ZN7testing8internal11ValueArray4IPKcS3_S3_S3_EC2ERKS4_(ptr noundef nonnull align 8 dereferenceable(32) %8, ptr noundef nonnull align 8 dereferenceable(32) %9)
  %10 = getelementptr inbounds nuw %"class.testing::internal::CartesianProductHolder2", ptr %7, i32 0, i32 1
  %11 = load ptr, ptr %6, align 8, !tbaa !565
  call void @_ZN7testing8internal11ValueArray5IiiiiiEC2ERKS2_(ptr noundef nonnull align 4 dereferenceable(20) %10, ptr noundef nonnull align 4 dereferenceable(20) %11)
  ret void
}

; Function Attrs: mustprogress nounwind uwtable
define linkonce_odr hidden void @_ZN7testing8internal11ValueArray5IiiiiiEC2Eiiiii(ptr noundef nonnull align 4 dereferenceable(20) %0, i32 noundef %1, i32 noundef %2, i32 noundef %3, i32 noundef %4, i32 noundef %5) unnamed_addr #9 comdat align 2 {
  %7 = alloca ptr, align 8
  %8 = alloca i32, align 4
  %9 = alloca i32, align 4
  %10 = alloca i32, align 4
  %11 = alloca i32, align 4
  %12 = alloca i32, align 4
  store ptr %0, ptr %7, align 8, !tbaa !565
  store i32 %1, ptr %8, align 4, !tbaa !9
  store i32 %2, ptr %9, align 4, !tbaa !9
  store i32 %3, ptr %10, align 4, !tbaa !9
  store i32 %4, ptr %11, align 4, !tbaa !9
  store i32 %5, ptr %12, align 4, !tbaa !9
  %13 = load ptr, ptr %7, align 8
  %14 = getelementptr inbounds nuw %"class.testing::internal::ValueArray5", ptr %13, i32 0, i32 0
  %15 = load i32, ptr %8, align 4, !tbaa !9
  store i32 %15, ptr %14, align 4, !tbaa !567
  %16 = getelementptr inbounds nuw %"class.testing::internal::ValueArray5", ptr %13, i32 0, i32 1
  %17 = load i32, ptr %9, align 4, !tbaa !9
  store i32 %17, ptr %16, align 4, !tbaa !569
  %18 = getelementptr inbounds nuw %"class.testing::internal::ValueArray5", ptr %13, i32 0, i32 2
  %19 = load i32, ptr %10, align 4, !tbaa !9
  store i32 %19, ptr %18, align 4, !tbaa !570
  %20 = getelementptr inbounds nuw %"class.testing::internal::ValueArray5", ptr %13, i32 0, i32 3
  %21 = load i32, ptr %11, align 4, !tbaa !9
  store i32 %21, ptr %20, align 4, !tbaa !571
  %22 = getelementptr inbounds nuw %"class.testing::internal::ValueArray5", ptr %13, i32 0, i32 4
  %23 = load i32, ptr %12, align 4, !tbaa !9
  store i32 %23, ptr %22, align 4, !tbaa !572
  ret void
}

; Function Attrs: mustprogress nounwind uwtable
define linkonce_odr hidden void @_ZN7testing8internal11ValueArray4IPKcS3_S3_S3_EC2ES3_S3_S3_S3_(ptr noundef nonnull align 8 dereferenceable(32) %0, ptr noundef %1, ptr noundef %2, ptr noundef %3, ptr noundef %4) unnamed_addr #9 comdat align 2 {
  %6 = alloca ptr, align 8
  %7 = alloca ptr, align 8
  %8 = alloca ptr, align 8
  %9 = alloca ptr, align 8
  %10 = alloca ptr, align 8
  store ptr %0, ptr %6, align 8, !tbaa !659
  store ptr %1, ptr %7, align 8, !tbaa !54
  store ptr %2, ptr %8, align 8, !tbaa !54
  store ptr %3, ptr %9, align 8, !tbaa !54
  store ptr %4, ptr %10, align 8, !tbaa !54
  %11 = load ptr, ptr %6, align 8
  %12 = getelementptr inbounds nuw %"class.testing::internal::ValueArray4", ptr %11, i32 0, i32 0
  %13 = load ptr, ptr %7, align 8, !tbaa !54
  store ptr %13, ptr %12, align 8, !tbaa !663
  %14 = getelementptr inbounds nuw %"class.testing::internal::ValueArray4", ptr %11, i32 0, i32 1
  %15 = load ptr, ptr %8, align 8, !tbaa !54
  store ptr %15, ptr %14, align 8, !tbaa !665
  %16 = getelementptr inbounds nuw %"class.testing::internal::ValueArray4", ptr %11, i32 0, i32 2
  %17 = load ptr, ptr %9, align 8, !tbaa !54
  store ptr %17, ptr %16, align 8, !tbaa !666
  %18 = getelementptr inbounds nuw %"class.testing::internal::ValueArray4", ptr %11, i32 0, i32 3
  %19 = load ptr, ptr %10, align 8, !tbaa !54
  store ptr %19, ptr %18, align 8, !tbaa !667
  ret void
}

; Function Attrs: mustprogress uwtable
define linkonce_odr hidden void @_ZN7testing7CombineINS_8internal11ValueArray4IPKcS4_S4_S4_EENS1_11ValueArray5IiiiiiEEEENS1_23CartesianProductHolder2IT_T0_EERKS9_RKSA_(ptr dead_on_unwind noalias writable sret(%"class.testing::internal::CartesianProductHolder2") align 8 %0, ptr noundef nonnull align 8 dereferenceable(32) %1, ptr noundef nonnull align 4 dereferenceable(20) %2) #6 comdat {
  %4 = alloca ptr, align 8
  %5 = alloca ptr, align 8
  %6 = alloca ptr, align 8
  store ptr %0, ptr %4, align 8
  store ptr %1, ptr %5, align 8, !tbaa !659
  store ptr %2, ptr %6, align 8, !tbaa !565
  %7 = load ptr, ptr %5, align 8, !tbaa !659
  %8 = load ptr, ptr %6, align 8, !tbaa !565
  call void @_ZN7testing8internal23CartesianProductHolder2INS0_11ValueArray4IPKcS4_S4_S4_EENS0_11ValueArray5IiiiiiEEEC2ERKS5_RKS7_(ptr noundef nonnull align 8 dereferenceable(52) %0, ptr noundef nonnull align 8 dereferenceable(32) %7, ptr noundef nonnull align 4 dereferenceable(20) %8)
  ret void
}

; Function Attrs: mustprogress uwtable
define linkonce_odr hidden void @_ZN7testing6ValuesIiiiiiEENS_8internal11ValueArray5IT_T0_T1_T2_T3_EES3_S4_S5_S6_S7_(ptr dead_on_unwind noalias writable sret(%"class.testing::internal::ValueArray5") align 4 %0, i32 noundef %1, i32 noundef %2, i32 noundef %3, i32 noundef %4, i32 noundef %5) #6 comdat {
  %7 = alloca ptr, align 8
  %8 = alloca i32, align 4
  %9 = alloca i32, align 4
  %10 = alloca i32, align 4
  %11 = alloca i32, align 4
  %12 = alloca i32, align 4
  store ptr %0, ptr %7, align 8
  store i32 %1, ptr %8, align 4, !tbaa !9
  store i32 %2, ptr %9, align 4, !tbaa !9
  store i32 %3, ptr %10, align 4, !tbaa !9
  store i32 %4, ptr %11, align 4, !tbaa !9
  store i32 %5, ptr %12, align 4, !tbaa !9
  %13 = load i32, ptr %8, align 4, !tbaa !9
  %14 = load i32, ptr %9, align 4, !tbaa !9
  %15 = load i32, ptr %10, align 4, !tbaa !9
  %16 = load i32, ptr %11, align 4, !tbaa !9
  %17 = load i32, ptr %12, align 4, !tbaa !9
  call void @_ZN7testing8internal11ValueArray5IiiiiiEC2Eiiiii(ptr noundef nonnull align 4 dereferenceable(20) %0, i32 noundef %13, i32 noundef %14, i32 noundef %15, i32 noundef %16, i32 noundef %17)
  ret void
}

; Function Attrs: mustprogress uwtable
define linkonce_odr hidden void @_ZN7testing6ValuesIPKcS2_S2_S2_EENS_8internal11ValueArray4IT_T0_T1_T2_EES5_S6_S7_S8_(ptr dead_on_unwind noalias writable sret(%"class.testing::internal::ValueArray4") align 8 %0, ptr noundef %1, ptr noundef %2, ptr noundef %3, ptr noundef %4) #6 comdat {
  %6 = alloca ptr, align 8
  %7 = alloca ptr, align 8
  %8 = alloca ptr, align 8
  %9 = alloca ptr, align 8
  %10 = alloca ptr, align 8
  store ptr %0, ptr %6, align 8
  store ptr %1, ptr %7, align 8, !tbaa !54
  store ptr %2, ptr %8, align 8, !tbaa !54
  store ptr %3, ptr %9, align 8, !tbaa !54
  store ptr %4, ptr %10, align 8, !tbaa !54
  %11 = load ptr, ptr %7, align 8, !tbaa !54
  %12 = load ptr, ptr %8, align 8, !tbaa !54
  %13 = load ptr, ptr %9, align 8, !tbaa !54
  %14 = load ptr, ptr %10, align 8, !tbaa !54
  call void @_ZN7testing8internal11ValueArray4IPKcS3_S3_S3_EC2ES3_S3_S3_S3_(ptr noundef nonnull align 8 dereferenceable(32) %0, ptr noundef %11, ptr noundef %12, ptr noundef %13, ptr noundef %14)
  ret void
}

; Function Attrs: mustprogress uwtable
define internal void @_ZN11opencv_testL53gtest_stitchExposureCompMultiFeed_a123_EvalGenerator_B5cxx11Ev(ptr dead_on_unwind noalias writable sret(%"class.testing::internal::ParamGenerator.132") align 8 %0) #6 {
  %2 = alloca ptr, align 8
  %3 = alloca %"class.testing::internal::CartesianProductHolder2", align 8
  %4 = alloca %"class.testing::internal::ValueArray4", align 8
  %5 = alloca %"class.testing::internal::ValueArray5", align 4
  store ptr %0, ptr %2, align 8
  call void @llvm.lifetime.start.p0(i64 56, ptr %3) #3
  call void @llvm.lifetime.start.p0(i64 32, ptr %4) #3
  call void @_ZN7testing6ValuesIPKcS2_S2_S2_EENS_8internal11ValueArray4IT_T0_T1_T2_EES5_S6_S7_S8_(ptr dead_on_unwind writable sret(%"class.testing::internal::ValueArray4") align 8 %4, ptr noundef @.str.45, ptr noundef @.str.46, ptr noundef @.str.47, ptr noundef @.str.48)
  call void @llvm.lifetime.start.p0(i64 20, ptr %5) #3
  call void @_ZN7testing6ValuesIiiiiiEENS_8internal11ValueArray5IT_T0_T1_T2_T3_EES3_S4_S5_S6_S7_(ptr dead_on_unwind writable sret(%"class.testing::internal::ValueArray5") align 4 %5, i32 noundef 1, i32 noundef 2, i32 noundef 3, i32 noundef 4, i32 noundef 5)
  call void @_ZN7testing7CombineINS_8internal11ValueArray4IPKcS4_S4_S4_EENS1_11ValueArray5IiiiiiEEEENS1_23CartesianProductHolder2IT_T0_EERKS9_RKSA_(ptr dead_on_unwind writable sret(%"class.testing::internal::CartesianProductHolder2") align 8 %3, ptr noundef nonnull align 8 dereferenceable(32) %4, ptr noundef nonnull align 4 dereferenceable(20) %5)
  call void @_ZNK7testing8internal23CartesianProductHolder2INS0_11ValueArray4IPKcS4_S4_S4_EENS0_11ValueArray5IiiiiiEEEcvNS0_14ParamGeneratorISt5tupleIJT_T0_EEEEINSt7__cxx1112basic_stringIcSt11char_traitsIcESaIcEEEiEEv(ptr dead_on_unwind writable sret(%"class.testing::internal::ParamGenerator.132") align 8 %0, ptr noundef nonnull align 8 dereferenceable(52) %3)
  call void @llvm.lifetime.end.p0(i64 20, ptr %5) #3
  call void @llvm.lifetime.end.p0(i64 32, ptr %4) #3
  call void @llvm.lifetime.end.p0(i64 56, ptr %3) #3
  ret void
}