; Function Attrs: mustprogress uwtable
define internal void @_ZN11opencv_testL53gtest_stitchExposureCompMultiFeed_a123_EvalGenerator_B5cxx11Ev(ptr dead_on_unwind noalias writable sret(%"class.testing::internal::ParamGenerator.132") align 8 %0) #4 {
  %2 = alloca %"class.testing::internal::CartesianProductHolder2", align 8
  call void @llvm.lifetime.start.p0(i64 56, ptr nonnull %2) #30
  store ptr @.str.45, ptr %2, align 8, !tbaa !282, !alias.scope !284
  %3 = getelementptr inbounds nuw i8, ptr %2, i64 8
  store ptr @.str.46, ptr %3, align 8, !tbaa !287, !alias.scope !284
  %4 = getelementptr inbounds nuw i8, ptr %2, i64 16
  store ptr @.str.47, ptr %4, align 8, !tbaa !288, !alias.scope !284
  %5 = getelementptr inbounds nuw i8, ptr %2, i64 24
  store ptr @.str.48, ptr %5, align 8, !tbaa !289, !alias.scope !284
  %6 = getelementptr inbounds nuw i8, ptr %2, i64 32
  store i32 1, ptr %6, align 8, !tbaa !290, !alias.scope !284
  %7 = getelementptr inbounds nuw i8, ptr %2, i64 36
  store i32 2, ptr %7, align 4, !tbaa !292, !alias.scope !284
  %8 = getelementptr inbounds nuw i8, ptr %2, i64 40
  store i32 3, ptr %8, align 8, !tbaa !293, !alias.scope !284
  %9 = getelementptr inbounds nuw i8, ptr %2, i64 44
  store i32 4, ptr %9, align 4, !tbaa !294, !alias.scope !284
  %10 = getelementptr inbounds nuw i8, ptr %2, i64 48
  store i32 5, ptr %10, align 8, !tbaa !295, !alias.scope !284
  call void @_ZNK7testing8internal23CartesianProductHolder2INS0_11ValueArray4IPKcS4_S4_S4_EENS0_11ValueArray5IiiiiiEEEcvNS0_14ParamGeneratorISt5tupleIJT_T0_EEEEINSt7__cxx1112basic_stringIcSt11char_traitsIcESaIcEEEiEEv(ptr dead_on_unwind writable sret(%"class.testing::internal::ParamGenerator.132") align 8 %0, ptr noundef nonnull align 8 dereferenceable(52) %2)
  call void @llvm.lifetime.end.p0(i64 56, ptr nonnull %2) #30
  ret void
}